target datalayout = "e-m:e-p270:32:32-p271:32:32-p272:64:64-i64:64-i128:128-f80:128-n8:16:32:64-S128"
target triple = "x86_64-pc-linux-gnu"

%struct._sapi_module_struct = type { ptr, ptr, ptr, ptr, ptr, ptr, ptr, ptr, ptr, ptr, ptr, ptr, ptr, ptr, ptr, ptr, ptr, ptr, ptr, ptr, ptr, ptr, ptr, ptr, i32, i32, ptr, ptr, ptr, ptr, ptr, ptr, i32, ptr, ptr, ptr }

@sapi_module = external global %struct._sapi_module_struct, align 8
@.str.65 = private unnamed_addr constant [2 x i8] c"\0A\00", align 1
@.str.112 = private unnamed_addr constant [9 x i8] c"<table>\0A\00", align 1
@.str.114 = private unnamed_addr constant [20 x i8] c"<tr class=\22h\22><td>\0A\00", align 1
@.str.115 = private unnamed_addr constant [20 x i8] c"<tr class=\22v\22><td>\0A\00", align 1

; Function Attrs: nounwind uwtable
define void @php_info_print_table_start() #0 {
  %1 = alloca ptr, align 8
  %2 = alloca ptr, align 8
  %3 = load i32, ptr getelementptr inbounds (%struct._sapi_module_struct, ptr @sapi_module, i32 0, i32 32), align 8
  %4 = icmp ne i32 %3, 0
  br i1 %4, label %10, label %5

5:                                                ; preds = %0
  store ptr @.str.112, ptr %1, align 8
  %6 = load ptr, ptr %1, align 8
  %7 = load ptr, ptr %1, align 8
  %8 = call i64 @strlen(ptr noundef %7) #9
  %9 = call i64 @php_output_write(ptr noundef %6, i64 noundef %8) #10
  br label %15

10:                                               ; preds = %0
  store ptr @.str.65, ptr %2, align 8
  %11 = load ptr, ptr %2, align 8
  %12 = load ptr, ptr %2, align 8
  %13 = call i64 @strlen(ptr noundef %12) #9
  %14 = call i64 @php_output_write(ptr noundef %11, i64 noundef %13) #10
  br label %15

15:                                               ; preds = %10, %5
  ret void
}

; Function Attrs: nounwind uwtable
define void @php_info_print_box_start(i32 noundef %0) #0 {
  %2 = alloca ptr, align 8
  %3 = alloca ptr, align 8
  %4 = alloca ptr, align 8
  %5 = alloca i32, align 4
  store i32 %0, ptr %5, align 4
  call void @php_info_print_table_start()
  %6 = load i32, ptr %5, align 4
  %7 = icmp ne i32 %6, 0
  br i1 %7, label %8, label %17

8:                                                ; preds = %1
  %9 = load i32, ptr getelementptr inbounds (%struct._sapi_module_struct, ptr @sapi_module, i32 0, i32 32), align 8
  %10 = icmp ne i32 %9, 0
  br i1 %10, label %16, label %11

11:                                               ; preds = %8
  store ptr @.str.114, ptr %2, align 8
  %12 = load ptr, ptr %2, align 8
  %13 = load ptr, ptr %2, align 8
  %14 = call i64 @strlen(ptr noundef %13) #9
  %15 = call i64 @php_output_write(ptr noundef %12, i64 noundef %14) #10
  br label %16

16:                                               ; preds = %11, %8
  br label %31

17:                                               ; preds = %1
  %18 = load i32, ptr getelementptr inbounds (%struct._sapi_module_struct, ptr @sapi_module, i32 0, i32 32), align 8
  %19 = icmp ne i32 %18, 0
  br i1 %19, label %25, label %20

20:                                               ; preds = %17
  store ptr @.str.115, ptr %3, align 8
  %21 = load ptr, ptr %3, align 8
  %22 = load ptr, ptr %3, align 8
  %23 = call i64 @strlen(ptr noundef %22) #9
  %24 = call i64 @php_output_write(ptr noundef %21, i64 noundef %23) #10
  br label %30

25:                                               ; preds = %17
  store ptr @.str.65, ptr %4, align 8
  %26 = load ptr, ptr %4, align 8
  %27 = load ptr, ptr %4, align 8
  %28 = call i64 @strlen(ptr noundef %27) #9
  %29 = call i64 @php_output_write(ptr noundef %26, i64 noundef %28) #10
  br label %30

30:                                               ; preds = %25, %20
  br label %31

31:                                               ; preds = %30, %16
  ret void
}