; Function Attrs: nounwind uwtable
define void @php_info_print_box_start(i32 noundef %0) local_unnamed_addr #0 {
  %2 = load i32, ptr getelementptr inbounds (%struct._sapi_module_struct, ptr @sapi_module, i64 0, i32 32), align 8
  %.not.i = icmp eq i32 %2, 0
  br i1 %.not.i, label %3, label %5

3:                                                ; preds = %1
  %4 = tail call i64 @php_output_write(ptr noundef nonnull @.str.112, i64 noundef 8) #14
  br label %php_info_print_table_start.exit

5:                                                ; preds = %1
  %6 = tail call i64 @php_output_write(ptr noundef nonnull @.str.65, i64 noundef 1) #14
  br label %php_info_print_table_start.exit

php_info_print_table_start.exit:                  ; preds = %3, %5
  %.not = icmp eq i32 %0, 0
  %7 = load i32, ptr getelementptr inbounds (%struct._sapi_module_struct, ptr @sapi_module, i64 0, i32 32), align 8
  %.not6 = icmp eq i32 %7, 0
  br i1 %.not, label %11, label %8

8:                                                ; preds = %php_info_print_table_start.exit
  br i1 %.not6, label %9, label %16

9:                                                ; preds = %8
  %10 = tail call i64 @php_output_write(ptr noundef nonnull @.str.114, i64 noundef 19) #14
  br label %16

11:                                               ; preds = %php_info_print_table_start.exit
  br i1 %.not6, label %12, label %14

12:                                               ; preds = %11
  %13 = tail call i64 @php_output_write(ptr noundef nonnull @.str.115, i64 noundef 19) #14
  br label %16

14:                                               ; preds = %11
  %15 = tail call i64 @php_output_write(ptr noundef nonnull @.str.65, i64 noundef 1) #14
  br label %16

16:                                               ; preds = %12, %14, %8, %9
  ret void
}